; Function Attrs: mustprogress nofree norecurse nosync nounwind willreturn memory(argmem: read) uwtable
define internal { i64, ptr } @_ZNK5arrow4util18AsyncTaskScheduler10SimpleTaskIZNS0_12_GLOBAL__N_131ThrottledAsyncTaskSchedulerImpl10SubmitTaskESt10unique_ptrINS1_4TaskESt14default_deleteIS6_EEibEUlvE_E4nameEv(ptr nocapture noundef nonnull readonly align 8 dereferenceable(104) %this) unnamed_addr #15 align 2 {
entry:
  %name_ = getelementptr inbounds i8, ptr %this, i64 48
  %retval.sroa.0.0.copyload = load i64, ptr %name_, align 8
  %retval.sroa.2.0.name_.sroa_idx = getelementptr inbounds i8, ptr %this, i64 56
  %retval.sroa.2.0.copyload = load ptr, ptr %retval.sroa.2.0.name_.sroa_idx, align 8
  %.fca.0.insert = insertvalue { i64, ptr } poison, i64 %retval.sroa.0.0.copyload, 0
  %.fca.1.insert = insertvalue { i64, ptr } %.fca.0.insert, ptr %retval.sroa.2.0.copyload, 1
  ret { i64, ptr } %.fca.1.insert
}